target datalayout = "e-m:e-p270:32:32-p271:32:32-p272:64:64-i64:64-i128:128-f80:128-n8:16:32:64-S128"
target triple = "x86_64-pc-linux-gnu"

%struct.nghttp2_session = type { %struct.nghttp2_map, %struct.nghttp2_outbound_queue, %struct.nghttp2_outbound_queue, %struct.nghttp2_outbound_queue, [8 x %struct.anon], %struct.nghttp2_active_outbound_item, %struct.nghttp2_inbound_frame, %struct.nghttp2_hd_deflater, %struct.nghttp2_hd_inflater, %struct.nghttp2_session_callbacks, %struct.nghttp2_mem, ptr, ptr, %struct.nghttp2_ratelim, i64, i64, i64, i64, i64, i64, i64, i64, i64, i64, i64, i64, i64, i64, i32, i32, i32, i32, i32, i32, i32, i32, i32, i32, i32, i32, i8, %struct.nghttp2_settings_storage, %struct.nghttp2_settings_storage, i32, i32, i32, i8, i8, i8, i8, i8, i8, [32 x i8] }
%struct.nghttp2_map = type { ptr, ptr, i64, i64 }
%struct.nghttp2_outbound_queue = type { ptr, ptr, i64 }
%struct.anon = type { %struct.nghttp2_pq }
%struct.nghttp2_pq = type { ptr, ptr, i64, i64, ptr }
%struct.nghttp2_active_outbound_item = type { ptr, %struct.nghttp2_bufs, i32 }
%struct.nghttp2_bufs = type { ptr, ptr, ptr, i64, i64, i64, i64, i64 }
%struct.nghttp2_inbound_frame = type { %union.nghttp2_frame, %union.nghttp2_ext_frame_payload, ptr, %struct.nghttp2_buf, %struct.nghttp2_buf, ptr, i64, i64, i64, i64, i32, [32 x i8] }
%union.nghttp2_frame = type { %struct.nghttp2_headers }
%struct.nghttp2_headers = type { %struct.nghttp2_frame_hd, i64, %struct.nghttp2_priority_spec, ptr, i64, i32 }
%struct.nghttp2_frame_hd = type { i64, i32, i8, i8, i8 }
%struct.nghttp2_priority_spec = type { i32, i32, i8 }
%union.nghttp2_ext_frame_payload = type { %struct.nghttp2_ext_altsvc }
%struct.nghttp2_ext_altsvc = type { ptr, i64, ptr, i64 }
%struct.nghttp2_buf = type { ptr, ptr, ptr, ptr, ptr }
%struct.nghttp2_hd_deflater = type { %struct.nghttp2_hd_context, %struct.nghttp2_hd_map, i64, i64, i8 }
%struct.nghttp2_hd_context = type { %struct.nghttp2_hd_ringbuf, ptr, i64, i64, i32, i8 }
%struct.nghttp2_hd_ringbuf = type { ptr, i64, i64, i64 }
%struct.nghttp2_hd_map = type { [128 x ptr] }
%struct.nghttp2_hd_inflater = type { %struct.nghttp2_hd_context, %struct.nghttp2_hd_huff_decode_context, %struct.nghttp2_buf, %struct.nghttp2_buf, ptr, ptr, ptr, ptr, i64, i64, i64, i64, i64, i32, i32, i8, i8, i8 }
%struct.nghttp2_hd_huff_decode_context = type { i16 }
%struct.nghttp2_session_callbacks = type { ptr, ptr, ptr, ptr, ptr, ptr, ptr, ptr, ptr, ptr, ptr, ptr, ptr, ptr, ptr, ptr, ptr, ptr, ptr, ptr, ptr, ptr, ptr, ptr, ptr, ptr, ptr, ptr }
%struct.nghttp2_mem = type { ptr, ptr, ptr, ptr, ptr }
%struct.nghttp2_ratelim = type { i64, i64, i64, i64 }
%struct.nghttp2_settings_storage = type { i32, i32, i32, i32, i32, i32, i32, i32 }

; Function Attrs: nounwind uwtable
define internal i32 @get_error_code_from_lib_error_code(i32 noundef %0) #0 {
  %2 = alloca i32, align 4
  %3 = alloca i32, align 4
  store i32 %0, ptr %3, align 4, !tbaa !3
  %4 = load i32, ptr %3, align 4, !tbaa !3
  switch i32 %4, label %11 [
    i32 -510, label %5
    i32 -523, label %6
    i32 -522, label %7
    i32 -524, label %8
    i32 -533, label %9
    i32 -505, label %10
    i32 -531, label %10
    i32 -532, label %10
  ]

5:                                                ; preds = %1
  store i32 5, ptr %2, align 4
  br label %12

6:                                                ; preds = %1
  store i32 9, ptr %2, align 4
  br label %12

7:                                                ; preds = %1
  store i32 6, ptr %2, align 4
  br label %12

8:                                                ; preds = %1
  store i32 3, ptr %2, align 4
  br label %12

9:                                                ; preds = %1
  store i32 7, ptr %2, align 4
  br label %12

10:                                               ; preds = %1, %1, %1
  store i32 1, ptr %2, align 4
  br label %12

11:                                               ; preds = %1
  store i32 2, ptr %2, align 4
  br label %12

12:                                               ; preds = %11, %10, %9, %8, %7, %6, %5
  %13 = load i32, ptr %2, align 4
  ret i32 %13
}

; Function Attrs: nounwind uwtable
define internal i32 @session_handle_invalid_stream2(ptr noundef %0, i32 noundef %1, ptr noundef %2, i32 noundef %3) #0 {
  %5 = alloca i32, align 4
  %6 = alloca ptr, align 8
  %7 = alloca i32, align 4
  %8 = alloca ptr, align 8
  %9 = alloca i32, align 4
  %10 = alloca i32, align 4
  %11 = alloca i32, align 4
  store ptr %0, ptr %6, align 8, !tbaa !7
  store i32 %1, ptr %7, align 4, !tbaa !3
  store ptr %2, ptr %8, align 8, !tbaa !53
  store i32 %3, ptr %9, align 4, !tbaa !3
  call void @llvm.lifetime.start.p0(i64 4, ptr %10) #10
  %12 = load ptr, ptr %6, align 8, !tbaa !7
  %13 = load i32, ptr %7, align 4, !tbaa !3
  %14 = load i32, ptr %9, align 4, !tbaa !3
  %15 = call i32 @get_error_code_from_lib_error_code(i32 noundef %14)
  %16 = call i32 @nghttp2_session_add_rst_stream(ptr noundef %12, i32 noundef %13, i32 noundef %15)
  store i32 %16, ptr %10, align 4, !tbaa !3
  %17 = load i32, ptr %10, align 4, !tbaa !3
  %18 = icmp ne i32 %17, 0
  br i1 %18, label %19, label %21

19:                                               ; preds = %4
  %20 = load i32, ptr %10, align 4, !tbaa !3
  store i32 %20, ptr %5, align 4
  store i32 1, ptr %11, align 4
  br label %43

21:                                               ; preds = %4
  %22 = load ptr, ptr %6, align 8, !tbaa !7
  %23 = getelementptr inbounds nuw %struct.nghttp2_session, ptr %22, i32 0, i32 9
  %24 = getelementptr inbounds nuw %struct.nghttp2_session_callbacks, ptr %23, i32 0, i32 5
  %25 = load ptr, ptr %24, align 8, !tbaa !170
  %26 = icmp ne ptr %25, null
  br i1 %26, label %27, label %42

27:                                               ; preds = %21
  %28 = load ptr, ptr %6, align 8, !tbaa !7
  %29 = getelementptr inbounds nuw %struct.nghttp2_session, ptr %28, i32 0, i32 9
  %30 = getelementptr inbounds nuw %struct.nghttp2_session_callbacks, ptr %29, i32 0, i32 5
  %31 = load ptr, ptr %30, align 8, !tbaa !170
  %32 = load ptr, ptr %6, align 8, !tbaa !7
  %33 = load ptr, ptr %8, align 8, !tbaa !53
  %34 = load i32, ptr %9, align 4, !tbaa !3
  %35 = load ptr, ptr %6, align 8, !tbaa !7
  %36 = getelementptr inbounds nuw %struct.nghttp2_session, ptr %35, i32 0, i32 11
  %37 = load ptr, ptr %36, align 8, !tbaa !94
  %38 = call i32 %31(ptr noundef %32, ptr noundef %33, i32 noundef %34, ptr noundef %37)
  %39 = icmp ne i32 %38, 0
  br i1 %39, label %40, label %41

40:                                               ; preds = %27
  store i32 -902, ptr %5, align 4
  store i32 1, ptr %11, align 4
  br label %43

41:                                               ; preds = %27
  br label %42

42:                                               ; preds = %41, %21
  store i32 0, ptr %5, align 4
  store i32 1, ptr %11, align 4
  br label %43

43:                                               ; preds = %42, %40, %19
  call void @llvm.lifetime.end.p0(i64 4, ptr %10) #10
  %44 = load i32, ptr %5, align 4
  ret i32 %44
}