; Function Attrs: nounwind uwtable
define internal fastcc i32 @session_handle_invalid_stream2(ptr noundef %0, i32 noundef %1, ptr noundef %2, i32 noundef range(i32 -533, -523) %3) unnamed_addr #1 {
  %switch.tableidx = add nsw i32 %3, 533
  %5 = icmp ult i32 %switch.tableidx, 10
  br i1 %5, label %switch.lookup, label %get_error_code_from_lib_error_code.exit

switch.lookup:                                    ; preds = %4
  %6 = zext nneg i32 %switch.tableidx to i64
  %switch.gep = getelementptr inbounds nuw [10 x i32], ptr @switch.table.session_handle_invalid_stream2, i64 0, i64 %6
  %switch.load = load i32, ptr %switch.gep, align 4
  br label %get_error_code_from_lib_error_code.exit

get_error_code_from_lib_error_code.exit:          ; preds = %4, %switch.lookup
  %.0.i = phi i32 [ %switch.load, %switch.lookup ], [ 2, %4 ]
  %7 = tail call i32 @nghttp2_session_add_rst_stream(ptr noundef %0, i32 noundef %1, i32 noundef %.0.i)
  %.not = icmp eq i32 %7, 0
  br i1 %.not, label %8, label %16

8:                                                ; preds = %get_error_code_from_lib_error_code.exit
  %9 = getelementptr inbounds nuw i8, ptr %0, i64 2160
  %10 = load ptr, ptr %9, align 8, !tbaa !174
  %.not13 = icmp eq ptr %10, null
  br i1 %.not13, label %15, label %11

11:                                               ; preds = %8
  %12 = getelementptr inbounds nuw i8, ptr %0, i64 2384
  %13 = load ptr, ptr %12, align 8, !tbaa !93
  %14 = tail call i32 %10(ptr noundef nonnull %0, ptr noundef %2, i32 noundef %3, ptr noundef %13) #16
  %.not14 = icmp eq i32 %14, 0
  br i1 %.not14, label %15, label %16

15:                                               ; preds = %11, %8
  br label %16

16:                                               ; preds = %11, %get_error_code_from_lib_error_code.exit, %15
  %.0 = phi i32 [ 0, %15 ], [ %7, %get_error_code_from_lib_error_code.exit ], [ -902, %11 ]
  ret i32 %.0
}